target datalayout = "e-m:e-p270:32:32-p271:32:32-p272:64:64-i64:64-i128:128-f80:128-n8:16:32:64-S128"
target triple = "x86_64-pc-linux-gnu"

%"class.gmx::(anonymous namespace)::ElectricField" = type { %"class.gmx::IMDModule", %"class.gmx::IMdpOptionProvider", %"class.gmx::IMDOutputProvider", %"class.gmx::IForceProvider", [3 x %"class.gmx::(anonymous namespace)::ElectricFieldDimension"], ptr }
%"class.gmx::IMDModule" = type { ptr }
%"class.gmx::IMdpOptionProvider" = type { ptr }
%"class.gmx::IMDOutputProvider" = type { ptr }
%"class.gmx::IForceProvider" = type { ptr }
%"class.gmx::(anonymous namespace)::ElectricFieldDimension" = type { float, float, float, float }
%"class.gmx::OptionSectionHandle" = type { %"class.gmx::AbstractOptionSectionHandle" }
%"class.gmx::AbstractOptionSectionHandle" = type { %"class.gmx::IOptionsContainerWithSections", ptr }
%"class.gmx::IOptionsContainerWithSections" = type { %"class.gmx::IOptionsContainer" }
%"class.gmx::IOptionsContainer" = type { ptr }
%"class.gmx::OptionSection" = type { %"class.gmx::AbstractOptionSection" }
%"class.gmx::AbstractOptionSection" = type { ptr, ptr }

@.str.21 = private unnamed_addr constant [15 x i8] c"electric-field\00", align 1
@.str.22 = private unnamed_addr constant [2 x i8] c"x\00", align 1
@.str.23 = private unnamed_addr constant [2 x i8] c"y\00", align 1
@.str.24 = private unnamed_addr constant [2 x i8] c"z\00", align 1
@_ZTVN3gmx27AbstractOptionSectionHandleE = external unnamed_addr constant { [7 x ptr] }, align 8
@_ZTVN3gmx29IOptionsContainerWithSectionsE = external unnamed_addr constant { [7 x ptr] }, align 8
@_ZTVN3gmx17IOptionsContainerE = external unnamed_addr constant { [6 x ptr] }, align 8
@_ZTVN3gmx13OptionSectionE = external unnamed_addr constant { [5 x ptr] }, align 8
@_ZTVN3gmx21AbstractOptionSectionE = linkonce_odr unnamed_addr constant { [5 x ptr] } { [5 x ptr] [ptr null, ptr @_ZTIN3gmx21AbstractOptionSectionE, ptr @_ZN3gmx21AbstractOptionSectionD2Ev, ptr @_ZN3gmx21AbstractOptionSectionD0Ev, ptr @__cxa_pure_virtual] }, comdat, align 8

; Function Attrs: mustprogress nounwind uwtable
define linkonce_odr void @_ZN3gmx17IOptionsContainerC2Ev(ptr noundef nonnull align 8 dereferenceable(8) %0) unnamed_addr #1 comdat align 2 {
  %2 = alloca ptr, align 8
  store ptr %0, ptr %2, align 8
  %3 = load ptr, ptr %2, align 8
  store ptr getelementptr inbounds inrange(-16, 32) ({ [6 x ptr] }, ptr @_ZTVN3gmx17IOptionsContainerE, i32 0, i32 0, i32 2), ptr %3, align 8
  ret void
}

; Function Attrs: mustprogress nounwind uwtable
define linkonce_odr void @_ZN3gmx29IOptionsContainerWithSectionsC2Ev(ptr noundef nonnull align 8 dereferenceable(8) %0) unnamed_addr #1 comdat align 2 {
  %2 = alloca ptr, align 8
  store ptr %0, ptr %2, align 8
  %3 = load ptr, ptr %2, align 8
  call void @_ZN3gmx17IOptionsContainerC2Ev(ptr noundef nonnull align 8 dereferenceable(8) %3) #16
  store ptr getelementptr inbounds inrange(-16, 40) ({ [7 x ptr] }, ptr @_ZTVN3gmx29IOptionsContainerWithSectionsE, i32 0, i32 0, i32 2), ptr %3, align 8
  ret void
}

; Function Attrs: mustprogress nounwind uwtable
define linkonce_odr void @_ZN3gmx27AbstractOptionSectionHandleC2EPNS_8internal17OptionSectionImplE(ptr noundef nonnull align 8 dereferenceable(16) %0, ptr noundef %1) unnamed_addr #1 comdat align 2 {
  %3 = alloca ptr, align 8
  %4 = alloca ptr, align 8
  store ptr %0, ptr %3, align 8
  store ptr %1, ptr %4, align 8
  %5 = load ptr, ptr %3, align 8
  call void @_ZN3gmx29IOptionsContainerWithSectionsC2Ev(ptr noundef nonnull align 8 dereferenceable(8) %5) #16
  store ptr getelementptr inbounds inrange(-16, 40) ({ [7 x ptr] }, ptr @_ZTVN3gmx27AbstractOptionSectionHandleE, i32 0, i32 0, i32 2), ptr %5, align 8
  %6 = getelementptr inbounds %"class.gmx::AbstractOptionSectionHandle", ptr %5, i32 0, i32 1
  %7 = load ptr, ptr %4, align 8
  store ptr %7, ptr %6, align 8
  ret void
}

; Function Attrs: mustprogress nounwind uwtable
define linkonce_odr void @_ZN3gmx27AbstractOptionSectionHandleD2Ev(ptr noundef nonnull align 8 dereferenceable(16) %0) unnamed_addr #1 comdat align 2 {
  %2 = alloca ptr, align 8
  store ptr %0, ptr %2, align 8
  %3 = load ptr, ptr %2, align 8
  call void @_ZN3gmx29IOptionsContainerWithSectionsD2Ev(ptr noundef nonnull align 8 dereferenceable(8) %3) #16
  ret void
}

; Function Attrs: mustprogress nounwind uwtable
define linkonce_odr void @_ZN3gmx21AbstractOptionSectionD2Ev(ptr noundef nonnull align 8 dereferenceable(16) %0) unnamed_addr #1 comdat align 2 {
  %2 = alloca ptr, align 8
  store ptr %0, ptr %2, align 8
  ret void
}

; Function Attrs: mustprogress uwtable
define linkonce_odr void @_ZN3gmx19OptionSectionHandleC2EPNS_8internal17OptionSectionImplE(ptr noundef nonnull align 8 dereferenceable(16) %0, ptr noundef %1) unnamed_addr #0 comdat align 2 {
  %3 = alloca ptr, align 8
  %4 = alloca ptr, align 8
  store ptr %0, ptr %3, align 8
  store ptr %1, ptr %4, align 8
  %5 = load ptr, ptr %3, align 8
  %6 = load ptr, ptr %4, align 8
  call void @_ZN3gmx27AbstractOptionSectionHandleC2EPNS_8internal17OptionSectionImplE(ptr noundef nonnull align 8 dereferenceable(16) %5, ptr noundef %6)
  store ptr getelementptr inbounds inrange(-16, 40) ({ [7 x ptr] }, ptr @_ZTVN3gmx19OptionSectionHandleE, i32 0, i32 0, i32 2), ptr %5, align 8
  ret void
}

; Function Attrs: mustprogress nounwind uwtable
define linkonce_odr void @_ZN3gmx21AbstractOptionSectionC2EPKc(ptr noundef nonnull align 8 dereferenceable(16) %0, ptr noundef %1) unnamed_addr #1 comdat align 2 {
  %3 = alloca ptr, align 8
  %4 = alloca ptr, align 8
  store ptr %0, ptr %3, align 8
  store ptr %1, ptr %4, align 8
  %5 = load ptr, ptr %3, align 8
  store ptr getelementptr inbounds inrange(-16, 24) ({ [5 x ptr] }, ptr @_ZTVN3gmx21AbstractOptionSectionE, i32 0, i32 0, i32 2), ptr %5, align 8
  %6 = getelementptr inbounds %"class.gmx::AbstractOptionSection", ptr %5, i32 0, i32 1
  %7 = load ptr, ptr %4, align 8
  store ptr %7, ptr %6, align 8
  ret void
}

; Function Attrs: mustprogress nounwind uwtable
define linkonce_odr void @_ZN3gmx19OptionSectionHandleD2Ev(ptr noundef nonnull align 8 dereferenceable(16) %0) unnamed_addr #1 comdat align 2 {
  %2 = alloca ptr, align 8
  store ptr %0, ptr %2, align 8
  %3 = load ptr, ptr %2, align 8
  call void @_ZN3gmx27AbstractOptionSectionHandleD2Ev(ptr noundef nonnull align 8 dereferenceable(16) %3) #16
  ret void
}

; Function Attrs: mustprogress nounwind uwtable
define linkonce_odr void @_ZN3gmx13OptionSectionD2Ev(ptr noundef nonnull align 8 dereferenceable(16) %0) unnamed_addr #1 comdat align 2 {
  %2 = alloca ptr, align 8
  store ptr %0, ptr %2, align 8
  %3 = load ptr, ptr %2, align 8
  call void @_ZN3gmx21AbstractOptionSectionD2Ev(ptr noundef nonnull align 8 dereferenceable(16) %3) #16
  ret void
}

; Function Attrs: mustprogress uwtable
define linkonce_odr void @_ZN3gmx29IOptionsContainerWithSections10addSectionINS_13OptionSectionEEENT_10HandleTypeERKS3_(ptr dead_on_unwind noalias writable sret(%"class.gmx::OptionSectionHandle") align 8 %0, ptr noundef nonnull align 8 dereferenceable(8) %1, ptr noundef nonnull align 8 dereferenceable(16) %2) #0 comdat align 2 {
  %4 = alloca ptr, align 8
  %5 = alloca ptr, align 8
  %6 = alloca ptr, align 8
  %7 = alloca ptr, align 8
  store ptr %0, ptr %4, align 8
  store ptr %1, ptr %5, align 8
  store ptr %2, ptr %6, align 8
  %8 = load ptr, ptr %5, align 8
  %9 = load ptr, ptr %6, align 8
  %10 = load ptr, ptr %8, align 8
  %11 = getelementptr inbounds ptr, ptr %10, i64 4
  %12 = load ptr, ptr %11, align 8
  %13 = call noundef ptr %12(ptr noundef nonnull align 8 dereferenceable(8) %8, ptr noundef nonnull align 8 dereferenceable(16) %9)
  store ptr %13, ptr %7, align 8
  %14 = load ptr, ptr %7, align 8
  call void @_ZN3gmx19OptionSectionHandleC2EPNS_8internal17OptionSectionImplE(ptr noundef nonnull align 8 dereferenceable(16) %0, ptr noundef %14)
  ret void
}

; Function Attrs: mustprogress uwtable
define linkonce_odr void @_ZN3gmx13OptionSectionC2EPKc(ptr noundef nonnull align 8 dereferenceable(16) %0, ptr noundef %1) unnamed_addr #0 comdat align 2 {
  %3 = alloca ptr, align 8
  %4 = alloca ptr, align 8
  store ptr %0, ptr %3, align 8
  store ptr %1, ptr %4, align 8
  %5 = load ptr, ptr %3, align 8
  %6 = load ptr, ptr %4, align 8
  call void @_ZN3gmx21AbstractOptionSectionC2EPKc(ptr noundef nonnull align 8 dereferenceable(16) %5, ptr noundef %6)
  store ptr getelementptr inbounds inrange(-16, 24) ({ [5 x ptr] }, ptr @_ZTVN3gmx13OptionSectionE, i32 0, i32 0, i32 2), ptr %5, align 8
  ret void
}

; Function Attrs: mustprogress uwtable
define internal void @_ZN3gmx12_GLOBAL__N_113ElectricField14initMdpOptionsEPNS_29IOptionsContainerWithSectionsE(ptr noundef nonnull align 8 dereferenceable(88) %0, ptr noundef %1) unnamed_addr #0 align 2 personality ptr @__gxx_personality_v0 {
  %3 = alloca ptr, align 8
  %4 = alloca ptr, align 8
  %5 = alloca %"class.gmx::OptionSectionHandle", align 8
  %6 = alloca %"class.gmx::OptionSection", align 8
  %7 = alloca ptr, align 8
  %8 = alloca i32, align 4
  store ptr %0, ptr %3, align 8
  store ptr %1, ptr %4, align 8
  %9 = load ptr, ptr %3, align 8
  %10 = load ptr, ptr %4, align 8
  call void @_ZN3gmx13OptionSectionC2EPKc(ptr noundef nonnull align 8 dereferenceable(16) %6, ptr noundef @.str.21)
  invoke void @_ZN3gmx29IOptionsContainerWithSections10addSectionINS_13OptionSectionEEENT_10HandleTypeERKS3_(ptr dead_on_unwind writable sret(%"class.gmx::OptionSectionHandle") align 8 %5, ptr noundef nonnull align 8 dereferenceable(8) %10, ptr noundef nonnull align 8 dereferenceable(16) %6)
          to label %11 unwind label %21

11:                                               ; preds = %2
  call void @_ZN3gmx13OptionSectionD2Ev(ptr noundef nonnull align 8 dereferenceable(16) %6) #16
  %12 = getelementptr inbounds %"class.gmx::(anonymous namespace)::ElectricField", ptr %9, i32 0, i32 4
  %13 = getelementptr inbounds [3 x %"class.gmx::(anonymous namespace)::ElectricFieldDimension"], ptr %12, i64 0, i64 0
  invoke void @_ZN3gmx12_GLOBAL__N_122ElectricFieldDimension14initMdpOptionsEPNS_29IOptionsContainerWithSectionsEPKc(ptr noundef nonnull align 4 dereferenceable(16) %13, ptr noundef %5, ptr noundef @.str.22)
          to label %14 unwind label %25

14:                                               ; preds = %11
  %15 = getelementptr inbounds %"class.gmx::(anonymous namespace)::ElectricField", ptr %9, i32 0, i32 4
  %16 = getelementptr inbounds [3 x %"class.gmx::(anonymous namespace)::ElectricFieldDimension"], ptr %15, i64 0, i64 1
  invoke void @_ZN3gmx12_GLOBAL__N_122ElectricFieldDimension14initMdpOptionsEPNS_29IOptionsContainerWithSectionsEPKc(ptr noundef nonnull align 4 dereferenceable(16) %16, ptr noundef %5, ptr noundef @.str.23)
          to label %17 unwind label %25

17:                                               ; preds = %14
  %18 = getelementptr inbounds %"class.gmx::(anonymous namespace)::ElectricField", ptr %9, i32 0, i32 4
  %19 = getelementptr inbounds [3 x %"class.gmx::(anonymous namespace)::ElectricFieldDimension"], ptr %18, i64 0, i64 2
  invoke void @_ZN3gmx12_GLOBAL__N_122ElectricFieldDimension14initMdpOptionsEPNS_29IOptionsContainerWithSectionsEPKc(ptr noundef nonnull align 4 dereferenceable(16) %19, ptr noundef %5, ptr noundef @.str.24)
          to label %20 unwind label %25

20:                                               ; preds = %17
  call void @_ZN3gmx19OptionSectionHandleD2Ev(ptr noundef nonnull align 8 dereferenceable(16) %5) #16
  ret void

21:                                               ; preds = %2
  %22 = landingpad { ptr, i32 }
          cleanup
  %23 = extractvalue { ptr, i32 } %22, 0
  store ptr %23, ptr %7, align 8
  %24 = extractvalue { ptr, i32 } %22, 1
  store i32 %24, ptr %8, align 4
  call void @_ZN3gmx13OptionSectionD2Ev(ptr noundef nonnull align 8 dereferenceable(16) %6) #16
  br label %29

25:                                               ; preds = %17, %14, %11
  %26 = landingpad { ptr, i32 }
          cleanup
  %27 = extractvalue { ptr, i32 } %26, 0
  store ptr %27, ptr %7, align 8
  %28 = extractvalue { ptr, i32 } %26, 1
  store i32 %28, ptr %8, align 4
  call void @_ZN3gmx19OptionSectionHandleD2Ev(ptr noundef nonnull align 8 dereferenceable(16) %5) #16
  br label %29

29:                                               ; preds = %25, %21
  %30 = load ptr, ptr %7, align 8
  %31 = load i32, ptr %8, align 4
  %32 = insertvalue { ptr, i32 } poison, ptr %30, 0
  %33 = insertvalue { ptr, i32 } %32, i32 %31, 1
  resume { ptr, i32 } %33
}