; Function Attrs: mustprogress uwtable
define internal void @_ZN3gmx12_GLOBAL__N_113ElectricField14initMdpOptionsEPNS_29IOptionsContainerWithSectionsE(ptr noundef nonnull align 8 dereferenceable(88) %0, ptr noundef %1) unnamed_addr #0 align 2 personality ptr @__gxx_personality_v0 {
  %3 = alloca %"class.gmx::OptionSectionHandle", align 8
  %4 = alloca %"class.gmx::OptionSection", align 8
  %5 = getelementptr inbounds i8, ptr %4, i64 8
  store ptr @.str.21, ptr %5, align 8
  store ptr getelementptr inbounds inrange(-16, 24) ({ [5 x ptr] }, ptr @_ZTVN3gmx13OptionSectionE, i64 0, i32 0, i64 2), ptr %4, align 8
  tail call void @llvm.experimental.noalias.scope.decl(metadata !10)
  %6 = load ptr, ptr %1, align 8, !noalias !10
  %7 = getelementptr inbounds i8, ptr %6, i64 32
  %8 = load ptr, ptr %7, align 8, !noalias !10
  %9 = call noundef ptr %8(ptr noundef nonnull align 8 dereferenceable(8) %1, ptr noundef nonnull align 8 dereferenceable(16) %4)
  %10 = getelementptr inbounds i8, ptr %3, i64 8
  store ptr %9, ptr %10, align 8, !alias.scope !10
  store ptr getelementptr inbounds inrange(-16, 40) ({ [7 x ptr] }, ptr @_ZTVN3gmx19OptionSectionHandleE, i64 0, i32 0, i64 2), ptr %3, align 8, !alias.scope !10
  %11 = getelementptr inbounds i8, ptr %0, i64 32
  invoke fastcc void @_ZN3gmx12_GLOBAL__N_122ElectricFieldDimension14initMdpOptionsEPNS_29IOptionsContainerWithSectionsEPKc(ptr noundef nonnull align 4 dereferenceable(16) %11, ptr noundef nonnull %3, ptr noundef nonnull @.str.22)
          to label %12 unwind label %17

12:                                               ; preds = %2
  %13 = getelementptr inbounds i8, ptr %0, i64 48
  invoke fastcc void @_ZN3gmx12_GLOBAL__N_122ElectricFieldDimension14initMdpOptionsEPNS_29IOptionsContainerWithSectionsEPKc(ptr noundef nonnull align 4 dereferenceable(16) %13, ptr noundef nonnull %3, ptr noundef nonnull @.str.23)
          to label %14 unwind label %17

14:                                               ; preds = %12
  %15 = getelementptr inbounds i8, ptr %0, i64 64
  invoke fastcc void @_ZN3gmx12_GLOBAL__N_122ElectricFieldDimension14initMdpOptionsEPNS_29IOptionsContainerWithSectionsEPKc(ptr noundef nonnull align 4 dereferenceable(16) %15, ptr noundef nonnull %3, ptr noundef nonnull @.str.24)
          to label %16 unwind label %17

16:                                               ; preds = %14
  call void @_ZN3gmx29IOptionsContainerWithSectionsD2Ev(ptr noundef nonnull align 8 dereferenceable(8) %3) #26
  ret void

17:                                               ; preds = %14, %12, %2
  %18 = landingpad { ptr, i32 }
          cleanup
  call void @_ZN3gmx29IOptionsContainerWithSectionsD2Ev(ptr noundef nonnull align 8 dereferenceable(8) %3) #26
  resume { ptr, i32 } %18
}